; ModuleID = '21/1121.c'
source_filename = "21/1121.c"
target datalayout = "e-m:e-p270:32:32-p271:32:32-p272:64:64-i64:64-f80:128-n8:16:32:64-S128"
target triple = "x86_64-pc-linux-gnu"

@.str = private unnamed_addr constant [3 x i8] c"%d\00", align 1
@.str.1 = private unnamed_addr constant [4 x i8] c",%d\00", align 1

; Function Attrs: noinline nounwind uwtable
define dso_local void @main() #0 {
  %1 = alloca i32, align 4
  %2 = alloca [300 x i32], align 16
  %3 = alloca i32, align 4
  %4 = alloca i32, align 4
  %5 = alloca [300 x i32], align 16
  %6 = alloca i32, align 4
  %7 = alloca double, align 8
  %8 = alloca [300 x double], align 16
  %9 = alloca double, align 8
  store i32 0, i32* %4, align 4
  store i32 0, i32* %6, align 4
  store double 0.000000e+00, double* %9, align 8
  %10 = call i32 (i8*, ...) @__isoc99_scanf(i8* getelementptr inbounds ([3 x i8], [3 x i8]* @.str, i64 0, i64 0), i32* %1)
  store i32 0, i32* %3, align 4
  br label %11

11:                                               ; preds = %26, %0
  %12 = load i32, i32* %3, align 4
  %13 = load i32, i32* %1, align 4
  %14 = icmp slt i32 %12, %13
  br i1 %14, label %15, label %29

15:                                               ; preds = %11
  %16 = load i32, i32* %3, align 4
  %17 = sext i32 %16 to i64
  %18 = getelementptr inbounds [300 x i32], [300 x i32]* %2, i64 0, i64 %17
  %19 = call i32 (i8*, ...) @__isoc99_scanf(i8* getelementptr inbounds ([3 x i8], [3 x i8]* @.str, i64 0, i64 0), i32* %18)
  %20 = load i32, i32* %4, align 4
  %21 = load i32, i32* %3, align 4
  %22 = sext i32 %21 to i64
  %23 = getelementptr inbounds [300 x i32], [300 x i32]* %2, i64 0, i64 %22
  %24 = load i32, i32* %23, align 4
  %25 = add nsw i32 %20, %24
  store i32 %25, i32* %4, align 4
  br label %26

26:                                               ; preds = %15
  %27 = load i32, i32* %3, align 4
  %28 = add nsw i32 %27, 1
  store i32 %28, i32* %3, align 4
  br label %11

29:                                               ; preds = %11
  %30 = load i32, i32* %4, align 4
  %31 = sitofp i32 %30 to double
  %32 = load i32, i32* %1, align 4
  %33 = sitofp i32 %32 to double
  %34 = fdiv double %31, %33
  store double %34, double* %7, align 8
  store i32 0, i32* %3, align 4
  br label %35

35:                                               ; preds = %51, %29
  %36 = load i32, i32* %3, align 4
  %37 = load i32, i32* %1, align 4
  %38 = icmp slt i32 %36, %37
  br i1 %38, label %39, label %54

39:                                               ; preds = %35
  %40 = load i32, i32* %3, align 4
  %41 = sext i32 %40 to i64
  %42 = getelementptr inbounds [300 x i32], [300 x i32]* %2, i64 0, i64 %41
  %43 = load i32, i32* %42, align 4
  %44 = sitofp i32 %43 to double
  %45 = load double, double* %7, align 8
  %46 = fsub double %44, %45
  %47 = call double @llvm.fabs.f64(double %46)
  %48 = load i32, i32* %3, align 4
  %49 = sext i32 %48 to i64
  %50 = getelementptr inbounds [300 x double], [300 x double]* %8, i64 0, i64 %49
  store double %47, double* %50, align 8
  br label %51

51:                                               ; preds = %39
  %52 = load i32, i32* %3, align 4
  %53 = add nsw i32 %52, 1
  store i32 %53, i32* %3, align 4
  br label %35

54:                                               ; preds = %35
  store i32 0, i32* %3, align 4
  br label %55

55:                                               ; preds = %72, %54
  %56 = load i32, i32* %3, align 4
  %57 = load i32, i32* %1, align 4
  %58 = icmp slt i32 %56, %57
  br i1 %58, label %59, label %75

59:                                               ; preds = %55
  %60 = load double, double* %9, align 8
  %61 = load i32, i32* %3, align 4
  %62 = sext i32 %61 to i64
  %63 = getelementptr inbounds [300 x double], [300 x double]* %8, i64 0, i64 %62
  %64 = load double, double* %63, align 8
  %65 = fcmp olt double %60, %64
  br i1 %65, label %66, label %71

66:                                               ; preds = %59
  %67 = load i32, i32* %3, align 4
  %68 = sext i32 %67 to i64
  %69 = getelementptr inbounds [300 x double], [300 x double]* %8, i64 0, i64 %68
  %70 = load double, double* %69, align 8
  store double %70, double* %9, align 8
  br label %71

71:                                               ; preds = %66, %59
  br label %72

72:                                               ; preds = %71
  %73 = load i32, i32* %3, align 4
  %74 = add nsw i32 %73, 1
  store i32 %74, i32* %3, align 4
  br label %55

75:                                               ; preds = %55
  store i32 0, i32* %3, align 4
  br label %76

76:                                               ; preds = %98, %75
  %77 = load i32, i32* %3, align 4
  %78 = load i32, i32* %1, align 4
  %79 = icmp slt i32 %77, %78
  br i1 %79, label %80, label %101

80:                                               ; preds = %76
  %81 = load i32, i32* %3, align 4
  %82 = sext i32 %81 to i64
  %83 = getelementptr inbounds [300 x double], [300 x double]* %8, i64 0, i64 %82
  %84 = load double, double* %83, align 8
  %85 = load double, double* %9, align 8
  %86 = fcmp oeq double %84, %85
  br i1 %86, label %87, label %97

87:                                               ; preds = %80
  %88 = load i32, i32* %3, align 4
  %89 = sext i32 %88 to i64
  %90 = getelementptr inbounds [300 x i32], [300 x i32]* %2, i64 0, i64 %89
  %91 = load i32, i32* %90, align 4
  %92 = load i32, i32* %6, align 4
  %93 = sext i32 %92 to i64
  %94 = getelementptr inbounds [300 x i32], [300 x i32]* %5, i64 0, i64 %93
  store i32 %91, i32* %94, align 4
  %95 = load i32, i32* %6, align 4
  %96 = add nsw i32 %95, 1
  store i32 %96, i32* %6, align 4
  br label %97

97:                                               ; preds = %87, %80
  br label %98

98:                                               ; preds = %97
  %99 = load i32, i32* %3, align 4
  %100 = add nsw i32 %99, 1
  store i32 %100, i32* %3, align 4
  br label %76

101:                                              ; preds = %76
  %102 = getelementptr inbounds [300 x i32], [300 x i32]* %5, i64 0, i64 0
  %103 = load i32, i32* %102, align 16
  %104 = call i32 (i8*, ...) @printf(i8* getelementptr inbounds ([3 x i8], [3 x i8]* @.str, i64 0, i64 0), i32 %103)
  store i32 1, i32* %3, align 4
  br label %105

105:                                              ; preds = %115, %101
  %106 = load i32, i32* %3, align 4
  %107 = load i32, i32* %6, align 4
  %108 = icmp slt i32 %106, %107
  br i1 %108, label %109, label %118

109:                                              ; preds = %105
  %110 = load i32, i32* %3, align 4
  %111 = sext i32 %110 to i64
  %112 = getelementptr inbounds [300 x i32], [300 x i32]* %5, i64 0, i64 %111
  %113 = load i32, i32* %112, align 4
  %114 = call i32 (i8*, ...) @printf(i8* getelementptr inbounds ([4 x i8], [4 x i8]* @.str.1, i64 0, i64 0), i32 %113)
  br label %115

115:                                              ; preds = %109
  %116 = load i32, i32* %3, align 4
  %117 = add nsw i32 %116, 1
  store i32 %117, i32* %3, align 4
  br label %105

118:                                              ; preds = %105
  ret void
}

declare dso_local i32 @__isoc99_scanf(i8*, ...) #1

; Function Attrs: nounwind readnone speculatable willreturn
declare double @llvm.fabs.f64(double) #2

declare dso_local i32 @printf(i8*, ...) #1


!llvm.module.flags = !{!0}
!llvm.ident = !{!1}

!0 = !{i32 1, !"wchar_size", i32 4}
!1 = !{!"clang version 10.0.0-4ubuntu1 "}
